; Function Attrs: mustprogress uwtable
define void @_ZN6icu_7713UnicodeStringC2EPKcS2_(ptr noundef nonnull align 8 dereferenceable(64) initializes((0, 10)) %0, ptr noundef %1, ptr noundef %2) unnamed_addr #0 align 2 personality ptr @__gxx_personality_v0 {
  store ptr getelementptr inbounds nuw inrange(-16, 88) (i8, ptr @_ZTVN6icu_7713UnicodeStringE, i64 16), ptr %0, align 8, !tbaa !3
  %4 = getelementptr inbounds nuw i8, ptr %0, i64 8
  store i16 2, ptr %4, align 8, !tbaa !6
  %.not = icmp eq ptr %1, null
  br i1 %.not, label %10, label %5

5:                                                ; preds = %3
  %6 = tail call i64 @strlen(ptr noundef nonnull dereferenceable(1) %1) #6
  %7 = trunc i64 %6 to i32
  invoke void @_ZN6icu_7713UnicodeString16doCodepageCreateEPKciS2_(ptr noundef nonnull align 8 dereferenceable(64) %0, ptr noundef nonnull %1, i32 noundef %7, ptr noundef %2)
          to label %10 unwind label %8

8:                                                ; preds = %5
  %9 = landingpad { ptr, i32 }
          cleanup
  tail call void @_ZN6icu_7711ReplaceableD2Ev(ptr noundef nonnull align 8 dereferenceable(8) %0) #7
  resume { ptr, i32 } %9

10:                                               ; preds = %5, %3
  ret void
}